(dp0
I21
(dp1
S'bf_theta'
p2
I2
sS'fitting'
p3
(lp4
S'delta'
p5
aS'z_temp'
p6
aS'pow_gain'
p7
asS'f'
p8
ccopy_reg
_reconstructor
p9
(cscipy.optimize.optimize
OptimizeResult
p10
c__builtin__
dict
p11
(dp12
S'status'
p13
I0
sS'nfev'
p14
I178
sS'success'
p15
I01
sS'fun'
p16
cnumpy.core.multiarray
scalar
p17
(cnumpy
dtype
p18
(S'f8'
p19
I0
I1
tp20
Rp21
(I3
S'<'
p22
NNNI-1
I-1
I0
tp23
bS'\x0fR\x0e\xb2\xcf\x81z@'
p24
tp25
Rp26
sS'x'
p27
cnumpy.core.multiarray
_reconstruct
p28
(cnumpy
ndarray
p29
(I0
tp30
S'b'
p31
tp32
Rp33
(I1
(I3
tp34
g21
I00
S'\xf8\x13w\x14\x7f}\xf3?\xdceF\x9e\xb7|\xb4?\xe4\t\x97\xa9z\x07\xd9?'
p35
tp36
bsS'message'
p37
S'Optimization terminated successfully.'
p38
sS'nit'
p39
I96
stp40
Rp41
ssI22
(dp42
g2
I8
sg3
(lp43
g5
ag6
ag7
aS'prelec_gamma'
p44
asg8
g9
(g10
g11
(dp45
g13
I0
sg14
I146
sg15
I01
sg16
g17
(g21
S'\x9a^\xb6\xe3K\xdax@'
p46
tp47
Rp48
sg27
g28
(g29
(I0
tp49
g31
tp50
Rp51
(I1
(I4
tp52
g21
I00
S'\x13$\xf8?\xaa\x07\xfb?\x10lNX\xde\xb0\xf6?\xe8\x897\x8cST\xde?v\xa5\x19\\\xaau\xc5?'
p53
tp54
bsg37
g38
sg39
I82
stp55
Rp56
ssI23
(dp57
g2
I4
sg3
(lp58
g5
ag6
ag7
asg8
g9
(g10
g11
(dp59
g13
I0
sg14
I473
sg15
I01
sg16
g17
(g21
S'\r\r\xa3R\xf6\x82u@'
p60
tp61
Rp62
sg27
g28
(g29
(I0
tp63
g31
tp64
Rp65
(I1
(I3
tp66
g21
I00
S"Jy\xc7'\xc0\xa7\xe1?\xd0M\xeb\xb5\\\xdd\x9d?\x98.\x98\x05\xa8\x82\xe6?"
p67
tp68
bsg37
g38
sg39
I269
stp69
Rp70
ssI27
(dp71
g2
I11
sg3
(lp72
g5
ag6
ag7
ag44
asg8
g9
(g10
g11
(dp73
g13
I0
sg14
I433
sg15
I01
sg16
g17
(g21
S'\xad\xb8\xf5\xa7d\xd1x@'
p74
tp75
Rp76
sg27
g28
(g29
(I0
tp77
g31
tp78
Rp79
(I1
(I4
tp80
g21
I00
S'(nf7wj\xed?\x1do6\xf5\xbeU\xac?v\xa6,\x13\xe8\xbb\xfe?\xccwZ\xf8\xf9\x8b\xe6?'
p81
tp82
bsg37
g38
sg39
I255
stp83
Rp84
ssI28
(dp85
g2
I5
sg3
(lp86
g5
ag6
ag7
ag44
asg8
g9
(g10
g11
(dp87
g13
I0
sg14
I323
sg15
I01
sg16
g17
(g21
S'\xf8\x04]\x89\x85\x07z@'
p88
tp89
Rp90
sg27
g28
(g29
(I0
tp91
g31
tp92
Rp93
(I1
(I4
tp94
g21
I00
S'h\xb1\x9b\xf9\xa6\xb8\xaf?Jz\x99\x02\xd6R\xf1?P\xcd\xa9a\xe0<\xdd?\x8e;\xd3\x12\xf6\r\x04@'
p95
tp96
bsg37
g38
sg39
I188
stp97
Rp98
ssI29
(dp99
g2
I5
sg3
(lp100
g5
ag6
ag7
ag44
asg8
g9
(g10
g11
(dp101
g13
I0
sg14
I315
sg15
I01
sg16
g17
(g21
S'\xa7|\xcbP\x15\xa0x@'
p102
tp103
Rp104
sg27
g28
(g29
(I0
tp105
g31
tp106
Rp107
(I1
(I4
tp108
g21
I00
S'B-\xb2\x04;\xe4\xf1?\x1cYz\x86\x1dQ\xfb?cT\xf1K\xeb\xf7\xe5?$\xe4\xff1L\xf7\xed?'
p109
tp110
bsg37
g38
sg39
I180
stp111
Rp112
ssI30
(dp113
g2
I9
sg3
(lp114
g5
ag6
ag7
ag44
asg8
g9
(g10
g11
(dp115
g13
I0
sg14
I453
sg15
I01
sg16
g17
(g21
S'\x83\xc6\xafQ~!y@'
p116
tp117
Rp118
sg27
g28
(g29
(I0
tp119
g31
tp120
Rp121
(I1
(I4
tp122
g21
I00
S'\x0eO0\xc4.\x99\xe1?\x88Z\x08\xc4P\x18\xa0?\x94\x0b\xb2;(\x93\xe1?\xf6\x8e\xe4\x0b\xef\x0e\xdb?'
p123
tp124
bsg37
g38
sg39
I254
stp125
Rp126
ssI31
(dp127
g2
I8
sg3
(lp128
g5
ag6
ag7
ag44
asg8
g9
(g10
g11
(dp129
g13
I0
sg14
I259
sg15
I01
sg16
g17
(g21
S'se\x9b\x03-cw@'
p130
tp131
Rp132
sg27
g28
(g29
(I0
tp133
g31
tp134
Rp135
(I1
(I4
tp136
g21
I00
S'\xf0\x10\xad\xbe\xa2D\xf8?\xc8\xff\xba\x02\xb5n\xf1?\x07\xeb\xde\xa8\xc9i\x03@x\xf2$ \xb74\x0c@'
p137
tp138
bsg37
g38
sg39
I152
stp139
Rp140
ss.