(dp0
I27
(dp1
S'bf_theta'
p2
I13
sS'fitting'
p3
(lp4
S'delta'
p5
aS'z_temp'
p6
aS'pow_gain'
p7
aS'p_switch'
p8
asS'f'
p9
ccopy_reg
_reconstructor
p10
(cscipy.optimize.optimize
OptimizeResult
p11
c__builtin__
dict
p12
(dp13
S'status'
p14
I0
sS'nfev'
p15
I570
sS'success'
p16
I01
sS'fun'
p17
cnumpy.core.multiarray
scalar
p18
(cnumpy
dtype
p19
(S'f8'
p20
I0
I1
tp21
Rp22
(I3
S'<'
p23
NNNI-1
I-1
I0
tp24
bS'\x9ca\xfe\xab\xf2\xc7v@'
p25
tp26
Rp27
sS'x'
p28
cnumpy.core.multiarray
_reconstruct
p29
(cnumpy
ndarray
p30
(I0
tp31
S'b'
p32
tp33
Rp34
(I1
(I4
tp35
g22
I00
S'\x8e\xaal\xc6\xcd\xa9\xec?\xc6\n\xbcE\xe0)\xfa?vU\xf4\xacY}\x0f@\x98\xb8\xeb\x98>F\x91='
p36
tp37
bsS'message'
p38
S'Optimization terminated successfully.'
p39
sS'nit'
p40
I330
stp41
Rp42
ssI28
(dp43
g2
I2
sg3
(lp44
g5
ag6
ag7
ag8
asg9
g10
(g11
g12
(dp45
g14
I0
sg15
I369
sg16
I01
sg17
g18
(g22
S'\xb5m\\\xc8\xc6\xe3y@'
p46
tp47
Rp48
sg28
g29
(g30
(I0
tp49
g32
tp50
Rp51
(I1
(I4
tp52
g22
I00
S'T$\xb2\xb5\x18Y\xe0?\xe0\xf6M\x0b\xac \x93?\x9a\xb5\xf8\xc4\xc3\xb7\xd2?n\xd2\x15R\x87\x10\xeb?'
p53
tp54
bsg38
g39
sg40
I216
stp55
Rp56
ssI21
(dp57
g2
I9
sg3
(lp58
g5
ag6
ag7
ag8
asg9
g10
(g11
g12
(dp59
g14
I1
sg15
I800
sg16
I00
sg17
g18
(g22
S'\xc8\xab\x9f\x16\xc0\xcfv@'
p60
tp61
Rp62
sg28
g29
(g30
(I0
tp63
g32
tp64
Rp65
(I1
(I4
tp66
g22
I00
S'd,\xdd\x8eyF\xed?\x8c\x8bQA\x82\x92\xf0?\xa6\xdf\xe8p\xb6(\x12@\xe0;\x8a\x9e\x94\x1f\xe0='
p67
tp68
bsg38
S'Maximum number of function evaluations has been exceeded.'
p69
sg40
I474
stp70
Rp71
ssI22
(dp72
g2
I11
sg3
(lp73
g5
ag6
ag7
ag8
asg9
g10
(g11
g12
(dp74
g14
I0
sg15
I785
sg16
I01
sg17
g18
(g22
S'\x07ZV0\r\x84x@'
p75
tp76
Rp77
sg28
g29
(g30
(I0
tp78
g32
tp79
Rp80
(I1
(I4
tp81
g22
I00
S"\xd0\xa1\xbe\xca\x07\x15\xe1?\x0e\x0f\xa3M\xa8{\x08@b\x87\x02\x0b\x8dA\xdc?\xd4<i\xa3'\x12\x90?"
p82
tp83
bsg38
g39
sg40
I464
stp84
Rp85
ssI23
(dp86
g2
I12
sg3
(lp87
g5
ag6
ag7
ag8
asg9
g10
(g11
g12
(dp88
g14
I0
sg15
I393
sg16
I01
sg17
g18
(g22
S'\xcdD\xf7\xbaF\xf6q@'
p89
tp90
Rp91
sg28
g29
(g30
(I0
tp92
g32
tp93
Rp94
(I1
(I4
tp95
g22
I00
S'\x90\xbb\xb91ST\xff?\x16Sx\xef\xb2j\xf9?\xb7\x82!LD#\x00@\xc05\x1b\x98i~\x00>'
p96
tp97
bsg38
g39
sg40
I227
stp98
Rp99
ss.