(dp0
I34
(dp1
S'bf_theta'
p2
I4
sS'fitting'
p3
(lp4
S'delta'
p5
aS'z_temp'
p6
aS'pow_gain'
p7
asS'f'
p8
ccopy_reg
_reconstructor
p9
(cscipy.optimize.optimize
OptimizeResult
p10
c__builtin__
dict
p11
(dp12
S'status'
p13
I0
sS'nfev'
p14
I280
sS'success'
p15
I01
sS'fun'
p16
cnumpy.core.multiarray
scalar
p17
(cnumpy
dtype
p18
(S'f8'
p19
I0
I1
tp20
Rp21
(I3
S'<'
p22
NNNI-1
I-1
I0
tp23
bS'\xda\xc0\xd1\xf4Y\x1ct@'
p24
tp25
Rp26
sS'x'
p27
cnumpy.core.multiarray
_reconstruct
p28
(cnumpy
ndarray
p29
(I0
tp30
S'b'
p31
tp32
Rp33
(I1
(I3
tp34
g21
I00
S'\xe6\x93m/\x9d8\xdc?\xb2Q\xf4\nq\xc2\xa0?~I\x94P\x97\x02\xe4?'
p35
tp36
bsS'message'
p37
S'Optimization terminated successfully.'
p38
sS'nit'
p39
I155
stp40
Rp41
ssI35
(dp42
g2
I4
sg3
(lp43
g5
ag6
ag7
asg8
g9
(g10
g11
(dp44
g13
I0
sg14
I226
sg15
I01
sg16
g17
(g21
S'\xa69\xa5\x87\xf1It@'
p45
tp46
Rp47
sg27
g28
(g29
(I0
tp48
g31
tp49
Rp50
(I1
(I3
tp51
g21
I00
S'\x1c\xab("\x16\x06\xec?\x9a\xfc\xa7\xc5\x00\xa6\xa1?[\x9b\xa1\xb2\x04\xad\xe1?'
p52
tp53
bsg37
g38
sg39
I124
stp54
Rp55
ssI36
(dp56
g2
I3
sg3
(lp57
g5
ag6
ag7
asg8
g9
(g10
g11
(dp58
g13
I0
sg14
I167
sg15
I01
sg16
g17
(g21
S'\xdb\x19\xcc\xc5\xebPq@'
p59
tp60
Rp61
sg27
g28
(g29
(I0
tp62
g31
tp63
Rp64
(I1
(I3
tp65
g21
I00
S'\x1f\xf1\xbd\xfd\xaf8\xe2?\xde"\xd6u\xc7h\xd4?rR\xdclg_\xe7?'
p66
tp67
bsg37
g38
sg39
I93
stp68
Rp69
ssI101
(dp70
g2
I6
sg3
(lp71
g5
ag6
ag7
asg8
g9
(g10
g11
(dp72
g13
I0
sg14
I266
sg15
I01
sg16
g17
(g21
S'\xba<\xeca\xd4Ny@'
p73
tp74
Rp75
sg27
g28
(g29
(I0
tp76
g31
tp77
Rp78
(I1
(I3
tp79
g21
I00
S'ZNQ}\xb2\xba\xe3?L_A\xcd\xf5Z\xa1?B\xf2|\x90]h\xe6?'
p80
tp81
bsg37
g38
sg39
I147
stp82
Rp83
ssI38
(dp84
g2
I8
sg3
(lp85
g5
ag6
ag7
asg8
g9
(g10
g11
(dp86
g13
I0
sg14
I110
sg15
I01
sg16
g17
(g21
S';t\x05\xa0e8}@'
p87
tp88
Rp89
sg27
g28
(g29
(I0
tp90
g31
tp91
Rp92
(I1
(I3
tp93
g21
I00
S'p\xd58\xa1HS\xe3?G\xb1F\xbb(\x08\xf0?*Z\x93\xe0\x08\xee\xeb?'
p94
tp95
bsg37
g38
sg39
I60
stp96
Rp97
ssI39
(dp98
g2
I7
sg3
(lp99
g5
ag6
ag7
asg8
g9
(g10
g11
(dp100
g13
I0
sg14
I292
sg15
I01
sg16
g17
(g21
S'2\xc6\x97`\n\x19|@'
p101
tp102
Rp103
sg27
g28
(g29
(I0
tp104
g31
tp105
Rp106
(I1
(I3
tp107
g21
I00
S'\xe2\xd3`\xde1A\xd7?\xd4\xd9\xbc\x11P\x96\xa0?\xb0Tj/\xab\xca\xe4?'
p108
tp109
bsg37
g38
sg39
I162
stp110
Rp111
ssI104
(dp112
g2
I9
sg3
(lp113
g5
ag6
ag7
asg8
g9
(g10
g11
(dp114
g13
I0
sg14
I235
sg15
I01
sg16
g17
(g21
S',WRY,"~@'
p115
tp116
Rp117
sg27
g28
(g29
(I0
tp118
g31
tp119
Rp120
(I1
(I3
tp121
g21
I00
S'$\x9cR\xbfH\xf4\xe1?\x11\xa0\x1d\x9c\x8c\x13\xa0?\xce;\xe3\x06h\xd7\xe8?'
p122
tp123
bsg37
g38
sg39
I130
stp124
Rp125
ssI103
(dp126
g2
I7
sg3
(lp127
g5
ag6
ag7
asg8
g9
(g10
g11
(dp128
g13
I0
sg14
I134
sg15
I01
sg16
g17
(g21
S'\xa4\xb6\xcb\xbb&!z@'
p129
tp130
Rp131
sg27
g28
(g29
(I0
tp132
g31
tp133
Rp134
(I1
(I3
tp135
g21
I00
S'\xa8\x80\x0fsZ\x9d\xf0?HI\xad3\x8f_\xa6?\x95\xa45\x10\x15\xca\xeb?'
p136
tp137
bsg37
g38
sg39
I76
stp138
Rp139
ssI102
(dp140
g2
I4
sg3
(lp141
g5
ag6
ag7
asg8
g9
(g10
g11
(dp142
g13
I0
sg14
I141
sg15
I01
sg16
g17
(g21
S'E\xf9\x85\xd6/!u@'
p143
tp144
Rp145
sg27
g28
(g29
(I0
tp146
g31
tp147
Rp148
(I1
(I3
tp149
g21
I00
S'N\xb2\xef\xdbjn\xe6?\x0e\xa8^\x17r\x8f\xdc?\x08\x88\xda\xb7\xfe\x92\xe4?'
p150
tp151
bsg37
g38
sg39
I78
stp152
Rp153
ssI21
(dp154
g2
I5
sg3
(lp155
g5
ag6
ag7
asg8
g9
(g10
g11
(dp156
g13
I0
sg14
I313
sg15
I01
sg16
g17
(g21
S'(\xe2\xe9\xd5\x80Ax@'
p157
tp158
Rp159
sg27
g28
(g29
(I0
tp160
g31
tp161
Rp162
(I1
(I3
tp163
g21
I00
S'\x826\xb4\xde?\xa3\xb2?\x91,x\xb0\xaf\x9b\xa0?z\xc4\xc7\x14\xaf\xe3$@'
p164
tp165
bsg37
g38
sg39
I175
stp166
Rp167
ssI22
(dp168
g2
I5
sg3
(lp169
g5
ag6
ag7
asg8
g9
(g10
g11
(dp170
g13
I0
sg14
I104
sg15
I01
sg16
g17
(g21
S'*\xf8\x7f|\xb6\xf5x@'
p171
tp172
Rp173
sg27
g28
(g29
(I0
tp174
g31
tp175
Rp176
(I1
(I3
tp177
g21
I00
S'\xe8\xd0e\xa7\x9b\xf8\xde?\xa5\x96\xf0\x90\xd2\x15\xe8?`u\xb7\x0ea\xad\xf1?'
p178
tp179
bsg37
g38
sg39
I57
stp180
Rp181
ssI23
(dp182
g2
I4
sg3
(lp183
g5
ag6
ag7
asg8
g9
(g10
g11
(dp184
g13
I0
sg14
I157
sg15
I01
sg16
g17
(g21
S'\x83\n\xd9\xed\xf8\x8du@'
p185
tp186
Rp187
sg27
g28
(g29
(I0
tp188
g31
tp189
Rp190
(I1
(I3
tp191
g21
I00
S'\xc4\xfe\xe9n~\xff\xe3?K\x92\xadt\xc8\xc3\xa3?+\x80\x0c\xe6\xb1c\xe1?'
p192
tp193
bsg37
g38
sg39
I86
stp194
Rp195
ssI26
(dp196
g2
I7
sg3
(lp197
g5
ag6
ag7
asg8
g9
(g10
g11
(dp198
g13
I0
sg14
I155
sg15
I01
sg16
g17
(g21
S'E\xe09\xd5\x17Cx@'
p199
tp200
Rp201
sg27
g28
(g29
(I0
tp202
g31
tp203
Rp204
(I1
(I3
tp205
g21
I00
S'x\x14_\xe7iO\xd4?\xb0\x0e\xfe\xdar\xa5\xee?\xed+\xceQ\xaf\xb2\xf2?'
p206
tp207
bsg37
g38
sg39
I88
stp208
Rp209
ssI27
(dp210
g2
I6
sg3
(lp211
g5
ag6
ag7
asg8
g9
(g10
g11
(dp212
g13
I0
sg14
I304
sg15
I01
sg16
g17
(g21
S'\xd4\xee\xb2\x80\xbb$y@'
p213
tp214
Rp215
sg27
g28
(g29
(I0
tp216
g31
tp217
Rp218
(I1
(I3
tp219
g21
I00
S'\x92\xbd\x84\x17\x00v\xe7?:L\xaeI\xd9\x14\xa0?\x14\x93\xa2\x13\xb8\xba\xea?'
p220
tp221
bsg37
g38
sg39
I166
stp222
Rp223
ssI28
(dp224
g2
I5
sg3
(lp225
g5
ag6
ag7
asg8
g9
(g10
g11
(dp226
g13
I0
sg14
I137
sg15
I01
sg16
g17
(g21
S'm\xb4\x8a\x80\x9d\x00z@'
p227
tp228
Rp229
sg27
g28
(g29
(I0
tp230
g31
tp231
Rp232
(I1
(I3
tp233
g21
I00
S'\x9a#\xf4"\xbe3\xca?0f\xb7t\xf9~\xf0?\xc2q(\xc8\x91\x8f\xc1?'
p234
tp235
bsg37
g38
sg39
I75
stp236
Rp237
ssI29
(dp238
g2
I4
sg3
(lp239
g5
ag6
ag7
asg8
g9
(g10
g11
(dp240
g13
I0
sg14
I104
sg15
I01
sg16
g17
(g21
S'O@e\x00\xb1\x83x@'
p241
tp242
Rp243
sg27
g28
(g29
(I0
tp244
g31
tp245
Rp246
(I1
(I3
tp247
g21
I00
S'\xc0[~\x1b[\xfe\xe1?\xe4Cd\xf3\t\xd0\xeb?P\x01\xbbu(D\xec?'
p248
tp249
bsg37
g38
sg39
I58
stp250
Rp251
ssI30
(dp252
g2
I6
sg3
(lp253
g5
ag6
ag7
asg8
g9
(g10
g11
(dp254
g13
I0
sg14
I262
sg15
I01
sg16
g17
(g21
S'\xa6\x99\x8c\xaf\xd8Jy@'
p255
tp256
Rp257
sg27
g28
(g29
(I0
tp258
g31
tp259
Rp260
(I1
(I3
tp261
g21
I00
S'}g!X\xca\xad\xdd?\x12r\\\x945\x9c\xa0?\x0c\x17\xac\xba\x9f\xf5\xe0?'
p262
tp263
bsg37
g38
sg39
I141
stp264
Rp265
ssI31
(dp266
g2
I6
sg3
(lp267
g5
ag6
ag7
asg8
g9
(g10
g11
(dp268
g13
I0
sg14
I163
sg15
I01
sg16
g17
(g21
S'\x1bZ\xb5l\x19\x9cw@'
p269
tp270
Rp271
sg27
g28
(g29
(I0
tp272
g31
tp273
Rp274
(I1
(I3
tp275
g21
I00
S'\xbc\xdb!\xc2R\xb1\xef?&x\xa3_-\xb8\xe3?V\xeb\xfc\x9fwU\xe2?'
p276
tp277
bsg37
g38
sg39
I89
stp278
Rp279
ss.